target datalayout = "e-m:e-p270:32:32-p271:32:32-p272:64:64-i64:64-i128:128-f80:128-n8:16:32:64-S128"
target triple = "x86_64-pc-linux-gnu"

; Function Attrs: mustprogress nounwind uwtable
define linkonce_odr hidden void @_ZN2cv12cpu_baseline13accW_general_IffEEvPKT_PT0_PKhiidi(ptr noundef %0, ptr noundef %1, ptr noundef %2, i32 noundef %3, i32 noundef %4, double noundef %5, i32 noundef %6) #2 comdat {
  %8 = alloca ptr, align 8
  %9 = alloca ptr, align 8
  %10 = alloca ptr, align 8
  %11 = alloca i32, align 4
  %12 = alloca i32, align 4
  %13 = alloca double, align 8
  %14 = alloca i32, align 4
  %15 = alloca float, align 4
  %16 = alloca float, align 4
  %17 = alloca i32, align 4
  %18 = alloca i32, align 4
  store ptr %0, ptr %8, align 8, !tbaa !8
  store ptr %1, ptr %9, align 8, !tbaa !8
  store ptr %2, ptr %10, align 8, !tbaa !3
  store i32 %3, ptr %11, align 4, !tbaa !10
  store i32 %4, ptr %12, align 4, !tbaa !10
  store double %5, ptr %13, align 8, !tbaa !31
  store i32 %6, ptr %14, align 4, !tbaa !10
  call void @llvm.lifetime.start.p0(i64 4, ptr %15) #4
  %19 = load double, ptr %13, align 8, !tbaa !31
  %20 = fptrunc double %19 to float
  store float %20, ptr %15, align 4, !tbaa !13
  call void @llvm.lifetime.start.p0(i64 4, ptr %16) #4
  %21 = load float, ptr %15, align 4, !tbaa !13
  %22 = fsub float 1.000000e+00, %21
  store float %22, ptr %16, align 4, !tbaa !13
  call void @llvm.lifetime.start.p0(i64 4, ptr %17) #4
  %23 = load i32, ptr %14, align 4, !tbaa !10
  store i32 %23, ptr %17, align 4, !tbaa !10
  %24 = load ptr, ptr %10, align 8, !tbaa !3
  %25 = icmp ne ptr %24, null
  br i1 %25, label %57, label %26

26:                                               ; preds = %7
  %27 = load i32, ptr %12, align 4, !tbaa !10
  %28 = load i32, ptr %11, align 4, !tbaa !10
  %29 = mul nsw i32 %28, %27
  store i32 %29, ptr %11, align 4, !tbaa !10
  br label %30

30:                                               ; preds = %53, %26
  %31 = load i32, ptr %17, align 4, !tbaa !10
  %32 = load i32, ptr %11, align 4, !tbaa !10
  %33 = icmp slt i32 %31, %32
  br i1 %33, label %34, label %56

34:                                               ; preds = %30
  %35 = load ptr, ptr %8, align 8, !tbaa !8
  %36 = load i32, ptr %17, align 4, !tbaa !10
  %37 = sext i32 %36 to i64
  %38 = getelementptr inbounds float, ptr %35, i64 %37
  %39 = load float, ptr %38, align 4, !tbaa !13
  %40 = load float, ptr %15, align 4, !tbaa !13
  %41 = load ptr, ptr %9, align 8, !tbaa !8
  %42 = load i32, ptr %17, align 4, !tbaa !10
  %43 = sext i32 %42 to i64
  %44 = getelementptr inbounds float, ptr %41, i64 %43
  %45 = load float, ptr %44, align 4, !tbaa !13
  %46 = load float, ptr %16, align 4, !tbaa !13
  %47 = fmul float %45, %46
  %48 = call float @llvm.fmuladd.f32(float %39, float %40, float %47)
  %49 = load ptr, ptr %9, align 8, !tbaa !8
  %50 = load i32, ptr %17, align 4, !tbaa !10
  %51 = sext i32 %50 to i64
  %52 = getelementptr inbounds float, ptr %49, i64 %51
  store float %48, ptr %52, align 4, !tbaa !13
  br label %53

53:                                               ; preds = %34
  %54 = load i32, ptr %17, align 4, !tbaa !10
  %55 = add nsw i32 %54, 1
  store i32 %55, ptr %17, align 4, !tbaa !10
  br label %30, !llvm.loop !93

56:                                               ; preds = %30
  br label %123

57:                                               ; preds = %7
  %58 = load i32, ptr %17, align 4, !tbaa !10
  %59 = load i32, ptr %12, align 4, !tbaa !10
  %60 = mul nsw i32 %58, %59
  %61 = load ptr, ptr %8, align 8, !tbaa !8
  %62 = sext i32 %60 to i64
  %63 = getelementptr inbounds float, ptr %61, i64 %62
  store ptr %63, ptr %8, align 8, !tbaa !8
  %64 = load i32, ptr %17, align 4, !tbaa !10
  %65 = load i32, ptr %12, align 4, !tbaa !10
  %66 = mul nsw i32 %64, %65
  %67 = load ptr, ptr %9, align 8, !tbaa !8
  %68 = sext i32 %66 to i64
  %69 = getelementptr inbounds float, ptr %67, i64 %68
  store ptr %69, ptr %9, align 8, !tbaa !8
  br label %70

70:                                               ; preds = %111, %57
  %71 = load i32, ptr %17, align 4, !tbaa !10
  %72 = load i32, ptr %11, align 4, !tbaa !10
  %73 = icmp slt i32 %71, %72
  br i1 %73, label %74, label %122

74:                                               ; preds = %70
  %75 = load ptr, ptr %10, align 8, !tbaa !3
  %76 = load i32, ptr %17, align 4, !tbaa !10
  %77 = sext i32 %76 to i64
  %78 = getelementptr inbounds i8, ptr %75, i64 %77
  %79 = load i8, ptr %78, align 1, !tbaa !12
  %80 = icmp ne i8 %79, 0
  br i1 %80, label %81, label %110

81:                                               ; preds = %74
  call void @llvm.lifetime.start.p0(i64 4, ptr %18) #4
  store i32 0, ptr %18, align 4, !tbaa !10
  br label %82

82:                                               ; preds = %106, %81
  %83 = load i32, ptr %18, align 4, !tbaa !10
  %84 = load i32, ptr %12, align 4, !tbaa !10
  %85 = icmp slt i32 %83, %84
  br i1 %85, label %87, label %86

86:                                               ; preds = %82
  call void @llvm.lifetime.end.p0(i64 4, ptr %18) #4
  br label %109

87:                                               ; preds = %82
  %88 = load ptr, ptr %8, align 8, !tbaa !8
  %89 = load i32, ptr %18, align 4, !tbaa !10
  %90 = sext i32 %89 to i64
  %91 = getelementptr inbounds float, ptr %88, i64 %90
  %92 = load float, ptr %91, align 4, !tbaa !13
  %93 = load float, ptr %15, align 4, !tbaa !13
  %94 = load ptr, ptr %9, align 8, !tbaa !8
  %95 = load i32, ptr %18, align 4, !tbaa !10
  %96 = sext i32 %95 to i64
  %97 = getelementptr inbounds float, ptr %94, i64 %96
  %98 = load float, ptr %97, align 4, !tbaa !13
  %99 = load float, ptr %16, align 4, !tbaa !13
  %100 = fmul float %98, %99
  %101 = call float @llvm.fmuladd.f32(float %92, float %93, float %100)
  %102 = load ptr, ptr %9, align 8, !tbaa !8
  %103 = load i32, ptr %18, align 4, !tbaa !10
  %104 = sext i32 %103 to i64
  %105 = getelementptr inbounds float, ptr %102, i64 %104
  store float %101, ptr %105, align 4, !tbaa !13
  br label %106

106:                                              ; preds = %87
  %107 = load i32, ptr %18, align 4, !tbaa !10
  %108 = add nsw i32 %107, 1
  store i32 %108, ptr %18, align 4, !tbaa !10
  br label %82, !llvm.loop !94

109:                                              ; preds = %86
  br label %110

110:                                              ; preds = %109, %74
  br label %111

111:                                              ; preds = %110
  %112 = load i32, ptr %17, align 4, !tbaa !10
  %113 = add nsw i32 %112, 1
  store i32 %113, ptr %17, align 4, !tbaa !10
  %114 = load i32, ptr %12, align 4, !tbaa !10
  %115 = load ptr, ptr %8, align 8, !tbaa !8
  %116 = sext i32 %114 to i64
  %117 = getelementptr inbounds float, ptr %115, i64 %116
  store ptr %117, ptr %8, align 8, !tbaa !8
  %118 = load i32, ptr %12, align 4, !tbaa !10
  %119 = load ptr, ptr %9, align 8, !tbaa !8
  %120 = sext i32 %118 to i64
  %121 = getelementptr inbounds float, ptr %119, i64 %120
  store ptr %121, ptr %9, align 8, !tbaa !8
  br label %70, !llvm.loop !95

122:                                              ; preds = %70
  br label %123

123:                                              ; preds = %122, %56
  call void @llvm.lifetime.end.p0(i64 4, ptr %17) #4
  call void @llvm.lifetime.end.p0(i64 4, ptr %16) #4
  call void @llvm.lifetime.end.p0(i64 4, ptr %15) #4
  ret void
}

; Function Attrs: mustprogress uwtable
define hidden void @_ZN2cv12cpu_baseline10accW_simd_EPKfPfPKhiid(ptr noundef %0, ptr noundef %1, ptr noundef %2, i32 noundef %3, i32 noundef %4, double noundef %5) #0 {
  %7 = alloca ptr, align 8
  %8 = alloca ptr, align 8
  %9 = alloca ptr, align 8
  %10 = alloca i32, align 4
  %11 = alloca i32, align 4
  %12 = alloca double, align 8
  %13 = alloca i32, align 4
  store ptr %0, ptr %7, align 8, !tbaa !8
  store ptr %1, ptr %8, align 8, !tbaa !8
  store ptr %2, ptr %9, align 8, !tbaa !3
  store i32 %3, ptr %10, align 4, !tbaa !10
  store i32 %4, ptr %11, align 4, !tbaa !10
  store double %5, ptr %12, align 8, !tbaa !31
  call void @llvm.lifetime.start.p0(i64 4, ptr %13) #4
  store i32 0, ptr %13, align 4, !tbaa !10
  %14 = load ptr, ptr %7, align 8, !tbaa !8
  %15 = load ptr, ptr %8, align 8, !tbaa !8
  %16 = load ptr, ptr %9, align 8, !tbaa !3
  %17 = load i32, ptr %10, align 4, !tbaa !10
  %18 = load i32, ptr %11, align 4, !tbaa !10
  %19 = load double, ptr %12, align 8, !tbaa !31
  %20 = load i32, ptr %13, align 4, !tbaa !10
  call void @_ZN2cv12cpu_baseline13accW_general_IffEEvPKT_PT0_PKhiidi(ptr noundef %14, ptr noundef %15, ptr noundef %16, i32 noundef %17, i32 noundef %18, double noundef %19, i32 noundef %20)
  call void @llvm.lifetime.end.p0(i64 4, ptr %13) #4
  ret void
}