; Function Attrs: mustprogress nofree norecurse nosync nounwind memory(argmem: readwrite) uwtable
define hidden void @_ZN2cv12cpu_baseline10accW_simd_EPKfPfPKhiid(ptr noundef readonly captures(none) %0, ptr noundef captures(none) %1, ptr noundef readonly %2, i32 noundef %3, i32 noundef %4, double noundef %5) local_unnamed_addr #0 {
  %7 = fptrunc double %5 to float
  %8 = fsub float 1.000000e+00, %7
  %.not.i = icmp eq ptr %2, null
  br i1 %.not.i, label %9, label %18

9:                                                ; preds = %6
  %10 = mul nsw i32 %4, %3
  %11 = icmp sgt i32 %10, 0
  br i1 %11, label %.lr.ph.preheader.i, label %_ZN2cv12cpu_baseline13accW_general_IffEEvPKT_PT0_PKhiidi.exit

.lr.ph.preheader.i:                               ; preds = %9
  %wide.trip.count66.i = zext nneg i32 %10 to i64
  br label %.lr.ph.i

.lr.ph.i:                                         ; preds = %.lr.ph.i, %.lr.ph.preheader.i
  %indvars.iv63.i = phi i64 [ 0, %.lr.ph.preheader.i ], [ %indvars.iv.next64.i, %.lr.ph.i ]
  %12 = getelementptr inbounds nuw float, ptr %0, i64 %indvars.iv63.i
  %13 = load float, ptr %12, align 4, !tbaa !6
  %14 = getelementptr inbounds nuw float, ptr %1, i64 %indvars.iv63.i
  %15 = load float, ptr %14, align 4, !tbaa !6
  %16 = fmul float %8, %15
  %17 = tail call float @llvm.fmuladd.f32(float %13, float %7, float %16)
  store float %17, ptr %14, align 4, !tbaa !6
  %indvars.iv.next64.i = add nuw nsw i64 %indvars.iv63.i, 1
  %exitcond67.not.i = icmp eq i64 %indvars.iv.next64.i, %wide.trip.count66.i
  br i1 %exitcond67.not.i, label %_ZN2cv12cpu_baseline13accW_general_IffEEvPKT_PT0_PKhiidi.exit, label %.lr.ph.i, !llvm.loop !82

18:                                               ; preds = %6
  %19 = icmp sgt i32 %3, 0
  br i1 %19, label %.lr.ph53.i, label %_ZN2cv12cpu_baseline13accW_general_IffEEvPKT_PT0_PKhiidi.exit

.lr.ph53.i:                                       ; preds = %18
  %20 = icmp sgt i32 %4, 0
  %21 = sext i32 %4 to i64
  br i1 %20, label %.lr.ph53.split.us.preheader.i, label %_ZN2cv12cpu_baseline13accW_general_IffEEvPKT_PT0_PKhiidi.exit

.lr.ph53.split.us.preheader.i:                    ; preds = %.lr.ph53.i
  %wide.trip.count61.i = zext nneg i32 %3 to i64
  %wide.trip.count.i = zext nneg i32 %4 to i64
  br label %.lr.ph53.split.us.i

.lr.ph53.split.us.i:                              ; preds = %..loopexit47_crit_edge.us.i, %.lr.ph53.split.us.preheader.i
  %indvars.iv58.i = phi i64 [ 0, %.lr.ph53.split.us.preheader.i ], [ %indvars.iv.next59.i, %..loopexit47_crit_edge.us.i ]
  %.04351.us.i = phi ptr [ %0, %.lr.ph53.split.us.preheader.i ], [ %30, %..loopexit47_crit_edge.us.i ]
  %.04450.us.i = phi ptr [ %1, %.lr.ph53.split.us.preheader.i ], [ %31, %..loopexit47_crit_edge.us.i ]
  %22 = getelementptr inbounds nuw i8, ptr %2, i64 %indvars.iv58.i
  %23 = load i8, ptr %22, align 1, !tbaa !3
  %.not46.us.i = icmp eq i8 %23, 0
  br i1 %.not46.us.i, label %..loopexit47_crit_edge.us.i, label %.preheader.us.i

.preheader.us.i:                                  ; preds = %.lr.ph53.split.us.i, %.preheader.us.i
  %indvars.iv.i = phi i64 [ %indvars.iv.next.i, %.preheader.us.i ], [ 0, %.lr.ph53.split.us.i ]
  %24 = getelementptr inbounds nuw float, ptr %.04351.us.i, i64 %indvars.iv.i
  %25 = load float, ptr %24, align 4, !tbaa !6
  %26 = getelementptr inbounds nuw float, ptr %.04450.us.i, i64 %indvars.iv.i
  %27 = load float, ptr %26, align 4, !tbaa !6
  %28 = fmul float %8, %27
  %29 = tail call float @llvm.fmuladd.f32(float %25, float %7, float %28)
  store float %29, ptr %26, align 4, !tbaa !6
  %indvars.iv.next.i = add nuw nsw i64 %indvars.iv.i, 1
  %exitcond.not.i = icmp eq i64 %indvars.iv.next.i, %wide.trip.count.i
  br i1 %exitcond.not.i, label %..loopexit47_crit_edge.us.i, label %.preheader.us.i, !llvm.loop !83

..loopexit47_crit_edge.us.i:                      ; preds = %.preheader.us.i, %.lr.ph53.split.us.i
  %indvars.iv.next59.i = add nuw nsw i64 %indvars.iv58.i, 1
  %30 = getelementptr inbounds nuw float, ptr %.04351.us.i, i64 %21
  %31 = getelementptr inbounds nuw float, ptr %.04450.us.i, i64 %21
  %exitcond62.not.i = icmp eq i64 %indvars.iv.next59.i, %wide.trip.count61.i
  br i1 %exitcond62.not.i, label %_ZN2cv12cpu_baseline13accW_general_IffEEvPKT_PT0_PKhiidi.exit, label %.lr.ph53.split.us.i, !llvm.loop !84

_ZN2cv12cpu_baseline13accW_general_IffEEvPKT_PT0_PKhiidi.exit: ; preds = %..loopexit47_crit_edge.us.i, %.lr.ph.i, %9, %18, %.lr.ph53.i
  ret void
}